; Function Attrs: nounwind uwtable
define dso_local void @typeCommand(ptr noundef %0) local_unnamed_addr #0 {
  %2 = getelementptr inbounds nuw i8, ptr %0, i64 32
  %3 = load ptr, ptr %2, align 8, !tbaa !74
  %4 = getelementptr inbounds nuw i8, ptr %0, i64 96
  %5 = load ptr, ptr %4, align 8, !tbaa !104
  %6 = getelementptr inbounds nuw i8, ptr %5, i64 8
  %7 = load ptr, ptr %6, align 8, !tbaa !105
  %8 = tail call ptr @lookupKey(ptr noundef %3, ptr noundef %7, i32 noundef 1, ptr noundef null)
  %9 = icmp eq ptr %8, null
  br i1 %9, label %getObjectTypeName.exit, label %10

10:                                               ; preds = %1
  %11 = load i32, ptr %8, align 8
  %12 = and i32 %11, 15
  %13 = icmp samesign ult i32 %12, 7
  br i1 %13, label %15, label %14, !prof !73

14:                                               ; preds = %10
  tail call void @_serverAssert(ptr noundef nonnull @.str.21, ptr noundef nonnull @.str.2, i32 noundef 1144) #20
  tail call void @abort() #21
  unreachable

15:                                               ; preds = %10
  %16 = icmp eq i32 %12, 5
  br i1 %16, label %17, label %22

17:                                               ; preds = %15
  %18 = getelementptr inbounds nuw i8, ptr %8, i64 8
  %19 = load ptr, ptr %18, align 8, !tbaa !18
  %20 = load ptr, ptr %19, align 8, !tbaa !121
  %21 = getelementptr inbounds nuw i8, ptr %20, i64 156
  br label %getObjectTypeName.exit

22:                                               ; preds = %15
  %23 = zext nneg i32 %12 to i64
  %24 = getelementptr inbounds nuw [7 x ptr], ptr @obj_type_name, i64 0, i64 %23
  %25 = load ptr, ptr %24, align 8, !tbaa !136
  br label %getObjectTypeName.exit

getObjectTypeName.exit:                           ; preds = %1, %17, %22
  %.0.i = phi ptr [ %21, %17 ], [ %25, %22 ], [ @.str.20, %1 ]
  tail call void @addReplyStatus(ptr noundef nonnull %0, ptr noundef %.0.i) #20
  ret void
}